; ModuleID = '31/1449.c'
source_filename = "31/1449.c"
target datalayout = "e-m:e-p270:32:32-p271:32:32-p272:64:64-i64:64-f80:128-n8:16:32:64-S128"
target triple = "x86_64-pc-linux-gnu"

%struct.student = type { %struct.student*, [100 x i8] }

@n = common dso_local global i32 0, align 4
@.str = private unnamed_addr constant [4 x i8] c"end\00", align 1
@.str.1 = private unnamed_addr constant [4 x i8] c"%s\0A\00", align 1
@.str.2 = private unnamed_addr constant [6 x i8] c"%s\0A%s\00", align 1

; Function Attrs: noinline nounwind uwtable
define dso_local %struct.student* @creat() #0 {
  %1 = alloca %struct.student*, align 8
  %2 = alloca %struct.student*, align 8
  %3 = alloca %struct.student*, align 8
  store i32 0, i32* @n, align 4
  %4 = call noalias i8* @malloc(i64 112) #4
  %5 = bitcast i8* %4 to %struct.student*
  store %struct.student* %5, %struct.student** %1, align 8
  %6 = load %struct.student*, %struct.student** %1, align 8
  %7 = getelementptr inbounds %struct.student, %struct.student* %6, i32 0, i32 1
  %8 = getelementptr inbounds [100 x i8], [100 x i8]* %7, i64 0, i64 0
  %9 = call i32 (i8*, ...) bitcast (i32 (...)* @gets to i32 (i8*, ...)*)(i8* %8)
  %10 = load %struct.student*, %struct.student** %1, align 8
  store %struct.student* %10, %struct.student** %2, align 8
  store %struct.student* null, %struct.student** %3, align 8
  br label %11

11:                                               ; preds = %28, %0
  %12 = load %struct.student*, %struct.student** %1, align 8
  %13 = getelementptr inbounds %struct.student, %struct.student* %12, i32 0, i32 1
  %14 = getelementptr inbounds [100 x i8], [100 x i8]* %13, i64 0, i64 0
  %15 = call i32 @strcmp(i8* %14, i8* getelementptr inbounds ([4 x i8], [4 x i8]* @.str, i64 0, i64 0)) #5
  %16 = icmp ne i32 %15, 0
  br i1 %16, label %17, label %36

17:                                               ; preds = %11
  %18 = load i32, i32* @n, align 4
  %19 = add nsw i32 %18, 1
  store i32 %19, i32* @n, align 4
  %20 = load i32, i32* @n, align 4
  %21 = icmp eq i32 %20, 1
  br i1 %21, label %22, label %24

22:                                               ; preds = %17
  %23 = load %struct.student*, %struct.student** %1, align 8
  store %struct.student* %23, %struct.student** %3, align 8
  br label %28

24:                                               ; preds = %17
  %25 = load %struct.student*, %struct.student** %1, align 8
  %26 = load %struct.student*, %struct.student** %2, align 8
  %27 = getelementptr inbounds %struct.student, %struct.student* %26, i32 0, i32 0
  store %struct.student* %25, %struct.student** %27, align 8
  br label %28

28:                                               ; preds = %24, %22
  %29 = load %struct.student*, %struct.student** %1, align 8
  store %struct.student* %29, %struct.student** %2, align 8
  %30 = call noalias i8* @malloc(i64 112) #4
  %31 = bitcast i8* %30 to %struct.student*
  store %struct.student* %31, %struct.student** %1, align 8
  %32 = load %struct.student*, %struct.student** %1, align 8
  %33 = getelementptr inbounds %struct.student, %struct.student* %32, i32 0, i32 1
  %34 = getelementptr inbounds [100 x i8], [100 x i8]* %33, i64 0, i64 0
  %35 = call i32 (i8*, ...) bitcast (i32 (...)* @gets to i32 (i8*, ...)*)(i8* %34)
  br label %11

36:                                               ; preds = %11
  %37 = load %struct.student*, %struct.student** %2, align 8
  %38 = getelementptr inbounds %struct.student, %struct.student* %37, i32 0, i32 0
  store %struct.student* null, %struct.student** %38, align 8
  %39 = load %struct.student*, %struct.student** %3, align 8
  ret %struct.student* %39
}

; Function Attrs: nounwind
declare dso_local noalias i8* @malloc(i64) #1

declare dso_local i32 @gets(...) #2

; Function Attrs: nounwind readonly
declare dso_local i32 @strcmp(i8*, i8*) #3

; Function Attrs: noinline nounwind uwtable
define dso_local void @main() #0 {
  %1 = alloca %struct.student*, align 8
  %2 = alloca %struct.student*, align 8
  %3 = alloca %struct.student*, align 8
  %4 = call %struct.student* @creat()
  store %struct.student* %4, %struct.student** %2, align 8
  %5 = load %struct.student*, %struct.student** %2, align 8
  store %struct.student* %5, %struct.student** %1, align 8
  br label %6

6:                                                ; preds = %0, %43
  %7 = load %struct.student*, %struct.student** %1, align 8
  %8 = getelementptr inbounds %struct.student, %struct.student* %7, i32 0, i32 0
  %9 = load %struct.student*, %struct.student** %8, align 8
  %10 = icmp ne %struct.student* %9, null
  br i1 %10, label %11, label %16

11:                                               ; preds = %6
  %12 = load %struct.student*, %struct.student** %1, align 8
  store %struct.student* %12, %struct.student** %3, align 8
  %13 = load %struct.student*, %struct.student** %1, align 8
  %14 = getelementptr inbounds %struct.student, %struct.student* %13, i32 0, i32 0
  %15 = load %struct.student*, %struct.student** %14, align 8
  store %struct.student* %15, %struct.student** %1, align 8
  br label %16

16:                                               ; preds = %11, %6
  %17 = load %struct.student*, %struct.student** %1, align 8
  %18 = getelementptr inbounds %struct.student, %struct.student* %17, i32 0, i32 0
  %19 = load %struct.student*, %struct.student** %18, align 8
  %20 = icmp eq %struct.student* %19, null
  br i1 %20, label %21, label %33

21:                                               ; preds = %16
  %22 = load %struct.student*, %struct.student** %3, align 8
  %23 = load %struct.student*, %struct.student** %2, align 8
  %24 = icmp ne %struct.student* %22, %23
  br i1 %24, label %25, label %33

25:                                               ; preds = %21
  %26 = load %struct.student*, %struct.student** %1, align 8
  %27 = getelementptr inbounds %struct.student, %struct.student* %26, i32 0, i32 1
  %28 = getelementptr inbounds [100 x i8], [100 x i8]* %27, i64 0, i64 0
  %29 = call i32 (i8*, ...) @printf(i8* getelementptr inbounds ([4 x i8], [4 x i8]* @.str.1, i64 0, i64 0), i8* %28)
  %30 = load %struct.student*, %struct.student** %3, align 8
  %31 = getelementptr inbounds %struct.student, %struct.student* %30, i32 0, i32 0
  store %struct.student* null, %struct.student** %31, align 8
  %32 = load %struct.student*, %struct.student** %2, align 8
  store %struct.student* %32, %struct.student** %1, align 8
  br label %33

33:                                               ; preds = %25, %21, %16
  %34 = load %struct.student*, %struct.student** %1, align 8
  %35 = getelementptr inbounds %struct.student, %struct.student* %34, i32 0, i32 0
  %36 = load %struct.student*, %struct.student** %35, align 8
  %37 = icmp eq %struct.student* %36, null
  br i1 %37, label %38, label %43

38:                                               ; preds = %33
  %39 = load %struct.student*, %struct.student** %3, align 8
  %40 = load %struct.student*, %struct.student** %2, align 8
  %41 = icmp eq %struct.student* %39, %40
  br i1 %41, label %42, label %43

42:                                               ; preds = %38
  br label %44

43:                                               ; preds = %38, %33
  br label %6

44:                                               ; preds = %42
  %45 = load %struct.student*, %struct.student** %1, align 8
  %46 = getelementptr inbounds %struct.student, %struct.student* %45, i32 0, i32 1
  %47 = getelementptr inbounds [100 x i8], [100 x i8]* %46, i64 0, i64 0
  %48 = load %struct.student*, %struct.student** %2, align 8
  %49 = getelementptr inbounds %struct.student, %struct.student* %48, i32 0, i32 1
  %50 = getelementptr inbounds [100 x i8], [100 x i8]* %49, i64 0, i64 0
  %51 = call i32 (i8*, ...) @printf(i8* getelementptr inbounds ([6 x i8], [6 x i8]* @.str.2, i64 0, i64 0), i8* %47, i8* %50)
  ret void
}

declare dso_local i32 @printf(i8*, ...) #2


!llvm.module.flags = !{!0}
!llvm.ident = !{!1}

!0 = !{i32 1, !"wchar_size", i32 4}
!1 = !{!"clang version 10.0.0-4ubuntu1 "}
